; Function Attrs: nounwind uwtable
define ptr @l_Lean_Compiler_LCNF_Simp_CtorInfo_getName(ptr noundef %0) local_unnamed_addr #1 {
  %2 = ptrtoint ptr %0 to i64
  %3 = and i64 %2, 1
  %.not.i = icmp eq i64 %3, 0
  br i1 %.not.i, label %7, label %4

4:                                                ; preds = %1
  %5 = lshr i64 %2, 1
  %6 = trunc i64 %5 to i32
  br label %lean_obj_tag.exit

7:                                                ; preds = %1
  %8 = getelementptr i8, ptr %0, i64 4
  %.val.i = load i32, ptr %8, align 4
  %9 = lshr i32 %.val.i, 24
  br label %lean_obj_tag.exit

lean_obj_tag.exit:                                ; preds = %4, %7
  %.0.i12 = phi i32 [ %6, %4 ], [ %9, %7 ]
  %10 = icmp eq i32 %.0.i12, 0
  %11 = getelementptr inbounds nuw i8, ptr %0, i64 8
  %12 = load ptr, ptr %11, align 8, !tbaa !9
  br i1 %10, label %13, label %26

13:                                               ; preds = %lean_obj_tag.exit
  %14 = getelementptr inbounds nuw i8, ptr %12, i64 8
  %15 = load ptr, ptr %14, align 8, !tbaa !9
  %16 = getelementptr inbounds nuw i8, ptr %15, i64 8
  %17 = load ptr, ptr %16, align 8, !tbaa !9
  %18 = ptrtoint ptr %17 to i64
  %19 = and i64 %18, 1
  %.not15 = icmp eq i64 %19, 0
  br i1 %.not15, label %20, label %lean_inc.exit

20:                                               ; preds = %13
  %.val.i13 = load i32, ptr %17, align 4, !tbaa !4
  %21 = icmp sgt i32 %.val.i13, 0
  br i1 %21, label %22, label %24, !prof !11

22:                                               ; preds = %20
  %23 = add nuw i32 %.val.i13, 1
  store i32 %23, ptr %17, align 4, !tbaa !4
  br label %lean_inc.exit

24:                                               ; preds = %20
  %.not.i14 = icmp eq i32 %.val.i13, 0
  br i1 %.not.i14, label %lean_inc.exit, label %25

25:                                               ; preds = %24
  tail call void @lean_inc_ref_cold(ptr noundef nonnull %17) #4
  br label %lean_inc.exit

26:                                               ; preds = %lean_obj_tag.exit
  %27 = ptrtoint ptr %12 to i64
  %28 = and i64 %27, 1
  %.not = icmp eq i64 %28, 0
  br i1 %.not, label %.critedge.i, label %29, !prof !12

29:                                               ; preds = %26
  %30 = icmp eq ptr %12, inttoptr (i64 1 to ptr)
  br label %lean_nat_eq.exit

.critedge.i:                                      ; preds = %26
  %31 = tail call zeroext i1 @lean_nat_big_eq(ptr noundef %12, ptr noundef nonnull inttoptr (i64 1 to ptr)) #4
  br label %lean_nat_eq.exit

lean_nat_eq.exit:                                 ; preds = %29, %.critedge.i
  %.0.i = phi i1 [ %30, %29 ], [ %31, %.critedge.i ]
  %l_Lean_Compiler_LCNF_Simp_CtorInfo_getName___closed__5.val = load ptr, ptr @l_Lean_Compiler_LCNF_Simp_CtorInfo_getName___closed__5, align 8
  %l_Lean_Compiler_LCNF_Simp_CtorInfo_getName___closed__3.val = load ptr, ptr @l_Lean_Compiler_LCNF_Simp_CtorInfo_getName___closed__3, align 8
  %.1 = select i1 %.0.i, ptr %l_Lean_Compiler_LCNF_Simp_CtorInfo_getName___closed__5.val, ptr %l_Lean_Compiler_LCNF_Simp_CtorInfo_getName___closed__3.val
  br label %lean_inc.exit

lean_inc.exit:                                    ; preds = %13, %22, %24, %25, %lean_nat_eq.exit
  %.0 = phi ptr [ %.1, %lean_nat_eq.exit ], [ %17, %25 ], [ %17, %24 ], [ %17, %22 ], [ %17, %13 ]
  ret ptr %.0
}